
hello.avr:     file format elf32-avr


Disassembly of section .text:

00000000 <__ctors_end>:
   0:	10 e0       	ldi	r17, 0x00	; 0
   2:	a0 e6       	ldi	r26, 0x60	; 96
   4:	b0 e0       	ldi	r27, 0x00	; 0
   6:	ec ee       	ldi	r30, 0xEC	; 236
   8:	f0 e0       	ldi	r31, 0x00	; 0
   a:	03 c0       	rjmp	.+6      	; 0x12 <__zero_reg__+0x11>
   c:	c8 95       	lpm
   e:	31 96       	adiw	r30, 0x01	; 1
  10:	0d 92       	st	X+, r0
  12:	ae 36       	cpi	r26, 0x6E	; 110
  14:	b1 07       	cpc	r27, r17
  16:	d1 f7       	brne	.-12     	; 0xc <__zero_reg__+0xb>

00000018 <__do_clear_bss>:
  18:	10 e0       	ldi	r17, 0x00	; 0
  1a:	ae e6       	ldi	r26, 0x6E	; 110
  1c:	b0 e0       	ldi	r27, 0x00	; 0
  1e:	01 c0       	rjmp	.+2      	; 0x22 <.do_clear_bss_start>

00000020 <.do_clear_bss_loop>:
  20:	1d 92       	st	X+, r1

00000022 <.do_clear_bss_start>:
  22:	a4 37       	cpi	r26, 0x74	; 116
  24:	b1 07       	cpc	r27, r17
  26:	e1 f7       	brne	.-8      	; 0x20 <.do_clear_bss_loop>

00000028 <main>:
  28:	df 93       	push	r29
  2a:	cf 93       	push	r28
  2c:	cd b7       	in	r28, 0x3d	; 61
  2e:	de b7       	in	r29, 0x3e	; 62
  30:	80 e6       	ldi	r24, 0x60	; 96
  32:	90 e0       	ldi	r25, 0x00	; 0
  34:	03 d0       	rcall	.+6      	; 0x3c <puts>
  36:	cf 91       	pop	r28
  38:	df 91       	pop	r29
  3a:	08 95       	ret

0000003c <puts>:
  3c:	ef 92       	push	r14
  3e:	ff 92       	push	r15
  40:	0f 93       	push	r16
  42:	1f 93       	push	r17
  44:	cf 93       	push	r28
  46:	df 93       	push	r29
  48:	08 2f       	mov	r16, r24
  4a:	19 2f       	mov	r17, r25
  4c:	e0 91 70 00 	lds	r30, 0x0070
  50:	f0 91 71 00 	lds	r31, 0x0071
  54:	83 81       	ldd	r24, Z+3	; 0x03
  56:	81 ff       	sbrs	r24, 1
  58:	23 c0       	rjmp	.+70     	; 0xa0 <__SREG__+0x61>
  5a:	c0 e0       	ldi	r28, 0x00	; 0
  5c:	d0 e0       	ldi	r29, 0x00	; 0
  5e:	0b c0       	rjmp	.+22     	; 0x76 <__SREG__+0x37>
  60:	a6 2f       	mov	r26, r22
  62:	b7 2f       	mov	r27, r23
  64:	18 96       	adiw	r26, 0x08	; 8
  66:	ed 91       	ld	r30, X+
  68:	fc 91       	ld	r31, X
  6a:	19 97       	sbiw	r26, 0x09	; 9
  6c:	09 95       	icall
  6e:	00 97       	sbiw	r24, 0x00	; 0
  70:	11 f0       	breq	.+4      	; 0x76 <__SREG__+0x37>
  72:	cf ef       	ldi	r28, 0xFF	; 255
  74:	df ef       	ldi	r29, 0xFF	; 255
  76:	e0 2f       	mov	r30, r16
  78:	f1 2f       	mov	r31, r17
  7a:	81 91       	ld	r24, Z+
  7c:	0e 2f       	mov	r16, r30
  7e:	1f 2f       	mov	r17, r31
  80:	60 91 70 00 	lds	r22, 0x0070
  84:	70 91 71 00 	lds	r23, 0x0071
  88:	88 23       	and	r24, r24
  8a:	51 f7       	brne	.-44     	; 0x60 <__SREG__+0x21>
  8c:	a6 2f       	mov	r26, r22
  8e:	b7 2f       	mov	r27, r23
  90:	18 96       	adiw	r26, 0x08	; 8
  92:	ed 91       	ld	r30, X+
  94:	fc 91       	ld	r31, X
  96:	19 97       	sbiw	r26, 0x09	; 9
  98:	8a e0       	ldi	r24, 0x0A	; 10
  9a:	09 95       	icall
  9c:	00 97       	sbiw	r24, 0x00	; 0
  9e:	11 f0       	breq	.+4      	; 0xa4 <__SREG__+0x65>
  a0:	cf ef       	ldi	r28, 0xFF	; 255
  a2:	df ef       	ldi	r29, 0xFF	; 255
  a4:	ec 2f       	mov	r30, r28
  a6:	fd 2f       	mov	r31, r29
  a8:	8c 2f       	mov	r24, r28
  aa:	9f 2f       	mov	r25, r31
  ac:	cd b7       	in	r28, 0x3d	; 61
  ae:	de b7       	in	r29, 0x3e	; 62
  b0:	e6 e0       	ldi	r30, 0x06	; 6
  b2:	0c c0       	rjmp	.+24     	; 0xcc <__epilogue_restores__+0x18>

000000b4 <__epilogue_restores__>:
  b4:	2a 88       	ldd	r2, Y+18	; 0x12
  b6:	39 88       	ldd	r3, Y+17	; 0x11
  b8:	48 88       	ldd	r4, Y+16	; 0x10
  ba:	5f 84       	ldd	r5, Y+15	; 0x0f
  bc:	6e 84       	ldd	r6, Y+14	; 0x0e
  be:	7d 84       	ldd	r7, Y+13	; 0x0d
  c0:	8c 84       	ldd	r8, Y+12	; 0x0c
  c2:	9b 84       	ldd	r9, Y+11	; 0x0b
  c4:	aa 84       	ldd	r10, Y+10	; 0x0a
  c6:	b9 84       	ldd	r11, Y+9	; 0x09
  c8:	c8 84       	ldd	r12, Y+8	; 0x08
  ca:	df 80       	ldd	r13, Y+7	; 0x07
  cc:	ee 80       	ldd	r14, Y+6	; 0x06
  ce:	fd 80       	ldd	r15, Y+5	; 0x05
  d0:	0c 81       	ldd	r16, Y+4	; 0x04
  d2:	1b 81       	ldd	r17, Y+3	; 0x03
  d4:	aa 81       	ldd	r26, Y+2	; 0x02
  d6:	b9 81       	ldd	r27, Y+1	; 0x01
  d8:	ce 0f       	add	r28, r30
  da:	d1 1d       	adc	r29, r1
  dc:	0f b6       	in	r0, 0x3f	; 63
  de:	f8 94       	cli
  e0:	de bf       	out	0x3e, r29	; 62
  e2:	0f be       	out	0x3f, r0	; 63
  e4:	cd bf       	out	0x3d, r28	; 61
  e6:	ca 2f       	mov	r28, r26
  e8:	db 2f       	mov	r29, r27
  ea:	08 95       	ret
